(dp0
S'start'
p1
I197
sS'dir'
p2
V/media/winxp/Program Files (x86)/python2.7.3/build/thunderbird extract/niji
p3
sS'path'
p4
V/media/winxp/Documents and Settings/jamesli/AppData/Roaming/Thunderbird/Profiles/fgvkk9zc.default/ImapMail/imap.googlemail.com/INBOX
p5
s.